target datalayout = "e-m:e-p270:32:32-p271:32:32-p272:64:64-i64:64-i128:128-f80:128-n8:16:32:64-S128"
target triple = "x86_64-pc-linux-gnu"

%struct.TS_resp_st = type { ptr, ptr, ptr }
%struct.TS_status_info_st = type { ptr, ptr, ptr }

@.str = private unnamed_addr constant [31 x i8] c"../openssl/crypto/ts/ts_asn1.c\00", align 1
@TS_TST_INFO_it.local_it = internal constant { i8, [7 x i8], i64, ptr, i64, ptr, i64, ptr } { i8 1, [7 x i8] zeroinitializer, i64 16, ptr @TS_TST_INFO_seq_tt, i64 10, ptr null, i64 80, ptr @.str.15 }, align 8
@__func__.ts_resp_set_tst_info = private unnamed_addr constant [21 x i8] c"ts_resp_set_tst_info\00", align 1

; Function Attrs: nounwind uwtable
define internal ptr @TS_TST_INFO_it() #0 {
  ret ptr @TS_TST_INFO_it.local_it
}

; Function Attrs: nounwind uwtable
define internal i32 @ts_resp_set_tst_info(ptr noundef %0) #0 {
  %2 = alloca i32, align 4
  %3 = alloca ptr, align 8
  %4 = alloca i64, align 8
  %5 = alloca i32, align 4
  store ptr %0, ptr %3, align 8, !tbaa !36
  call void @llvm.lifetime.start.p0(i64 8, ptr %4) #3
  %6 = load ptr, ptr %3, align 8, !tbaa !36
  %7 = getelementptr inbounds nuw %struct.TS_resp_st, ptr %6, i32 0, i32 0
  %8 = load ptr, ptr %7, align 8, !tbaa !76
  %9 = getelementptr inbounds nuw %struct.TS_status_info_st, ptr %8, i32 0, i32 0
  %10 = load ptr, ptr %9, align 8, !tbaa !77
  %11 = call i64 @ASN1_INTEGER_get(ptr noundef %10)
  store i64 %11, ptr %4, align 8, !tbaa !10
  %12 = load ptr, ptr %3, align 8, !tbaa !36
  %13 = getelementptr inbounds nuw %struct.TS_resp_st, ptr %12, i32 0, i32 1
  %14 = load ptr, ptr %13, align 8, !tbaa !80
  %15 = icmp ne ptr %14, null
  br i1 %15, label %16, label %39

16:                                               ; preds = %1
  %17 = load i64, ptr %4, align 8, !tbaa !10
  %18 = icmp ne i64 %17, 0
  br i1 %18, label %19, label %23

19:                                               ; preds = %16
  %20 = load i64, ptr %4, align 8, !tbaa !10
  %21 = icmp ne i64 %20, 1
  br i1 %21, label %22, label %23

22:                                               ; preds = %19
  call void @ERR_new()
  call void @ERR_set_debug(ptr noundef @.str, i32 noundef 141, ptr noundef @__func__.ts_resp_set_tst_info)
  call void (i32, i32, ptr, ...) @ERR_set_error(i32 noundef 47, i32 noundef 131, ptr noundef null)
  store i32 0, ptr %2, align 4
  store i32 1, ptr %5, align 4
  br label %48

23:                                               ; preds = %19, %16
  %24 = load ptr, ptr %3, align 8, !tbaa !36
  %25 = getelementptr inbounds nuw %struct.TS_resp_st, ptr %24, i32 0, i32 2
  %26 = load ptr, ptr %25, align 8, !tbaa !74
  call void @TS_TST_INFO_free(ptr noundef %26)
  %27 = load ptr, ptr %3, align 8, !tbaa !36
  %28 = getelementptr inbounds nuw %struct.TS_resp_st, ptr %27, i32 0, i32 1
  %29 = load ptr, ptr %28, align 8, !tbaa !80
  %30 = call ptr @PKCS7_to_TS_TST_INFO(ptr noundef %29)
  %31 = load ptr, ptr %3, align 8, !tbaa !36
  %32 = getelementptr inbounds nuw %struct.TS_resp_st, ptr %31, i32 0, i32 2
  store ptr %30, ptr %32, align 8, !tbaa !74
  %33 = load ptr, ptr %3, align 8, !tbaa !36
  %34 = getelementptr inbounds nuw %struct.TS_resp_st, ptr %33, i32 0, i32 2
  %35 = load ptr, ptr %34, align 8, !tbaa !74
  %36 = icmp ne ptr %35, null
  br i1 %36, label %38, label %37

37:                                               ; preds = %23
  call void @ERR_new()
  call void @ERR_set_debug(ptr noundef @.str, i32 noundef 147, ptr noundef @__func__.ts_resp_set_tst_info)
  call void (i32, i32, ptr, ...) @ERR_set_error(i32 noundef 47, i32 noundef 129, ptr noundef null)
  store i32 0, ptr %2, align 4
  store i32 1, ptr %5, align 4
  br label %48

38:                                               ; preds = %23
  br label %47

39:                                               ; preds = %1
  %40 = load i64, ptr %4, align 8, !tbaa !10
  %41 = icmp eq i64 %40, 0
  br i1 %41, label %45, label %42

42:                                               ; preds = %39
  %43 = load i64, ptr %4, align 8, !tbaa !10
  %44 = icmp eq i64 %43, 1
  br i1 %44, label %45, label %46

45:                                               ; preds = %42, %39
  call void @ERR_new()
  call void @ERR_set_debug(ptr noundef @.str, i32 noundef 151, ptr noundef @__func__.ts_resp_set_tst_info)
  call void (i32, i32, ptr, ...) @ERR_set_error(i32 noundef 47, i32 noundef 130, ptr noundef null)
  store i32 0, ptr %2, align 4
  store i32 1, ptr %5, align 4
  br label %48

46:                                               ; preds = %42
  br label %47

47:                                               ; preds = %46, %38
  store i32 1, ptr %2, align 4
  store i32 1, ptr %5, align 4
  br label %48

48:                                               ; preds = %47, %45, %37, %22
  call void @llvm.lifetime.end.p0(i64 8, ptr %4) #3
  %49 = load i32, ptr %2, align 4
  ret i32 %49
}

; Function Attrs: nounwind uwtable
define void @TS_TST_INFO_free(ptr noundef %0) #0 {
  %2 = alloca ptr, align 8
  store ptr %0, ptr %2, align 8, !tbaa !28
  %3 = load ptr, ptr %2, align 8, !tbaa !28
  %4 = call ptr @TS_TST_INFO_it()
  call void @ASN1_item_free(ptr noundef %3, ptr noundef %4)
  ret void
}

; Function Attrs: nounwind uwtable
define internal i32 @ts_resp_cb(i32 noundef %0, ptr noundef %1, ptr noundef %2, ptr noundef %3) #0 {
  %5 = alloca i32, align 4
  %6 = alloca i32, align 4
  %7 = alloca ptr, align 8
  %8 = alloca ptr, align 8
  %9 = alloca ptr, align 8
  %10 = alloca ptr, align 8
  %11 = alloca i32, align 4
  store i32 %0, ptr %6, align 4, !tbaa !66
  store ptr %1, ptr %7, align 8, !tbaa !67
  store ptr %2, ptr %8, align 8, !tbaa !69
  store ptr %3, ptr %9, align 8, !tbaa !71
  call void @llvm.lifetime.start.p0(i64 8, ptr %10) #3
  %12 = load ptr, ptr %7, align 8, !tbaa !67
  %13 = load ptr, ptr %12, align 8, !tbaa !72
  store ptr %13, ptr %10, align 8, !tbaa !36
  %14 = load i32, ptr %6, align 4, !tbaa !66
  %15 = icmp eq i32 %14, 1
  br i1 %15, label %16, label %19

16:                                               ; preds = %4
  %17 = load ptr, ptr %10, align 8, !tbaa !36
  %18 = getelementptr inbounds nuw %struct.TS_resp_st, ptr %17, i32 0, i32 2
  store ptr null, ptr %18, align 8, !tbaa !74
  br label %37

19:                                               ; preds = %4
  %20 = load i32, ptr %6, align 4, !tbaa !66
  %21 = icmp eq i32 %20, 3
  br i1 %21, label %22, label %26

22:                                               ; preds = %19
  %23 = load ptr, ptr %10, align 8, !tbaa !36
  %24 = getelementptr inbounds nuw %struct.TS_resp_st, ptr %23, i32 0, i32 2
  %25 = load ptr, ptr %24, align 8, !tbaa !74
  call void @TS_TST_INFO_free(ptr noundef %25)
  br label %36

26:                                               ; preds = %19
  %27 = load i32, ptr %6, align 4, !tbaa !66
  %28 = icmp eq i32 %27, 5
  br i1 %28, label %29, label %35

29:                                               ; preds = %26
  %30 = load ptr, ptr %10, align 8, !tbaa !36
  %31 = call i32 @ts_resp_set_tst_info(ptr noundef %30)
  %32 = icmp eq i32 %31, 0
  br i1 %32, label %33, label %34

33:                                               ; preds = %29
  store i32 0, ptr %5, align 4
  store i32 1, ptr %11, align 4
  br label %38

34:                                               ; preds = %29
  br label %35

35:                                               ; preds = %34, %26
  br label %36

36:                                               ; preds = %35, %22
  br label %37

37:                                               ; preds = %36, %16
  store i32 1, ptr %5, align 4
  store i32 1, ptr %11, align 4
  br label %38

38:                                               ; preds = %37, %33
  call void @llvm.lifetime.end.p0(i64 8, ptr %10) #3
  %39 = load i32, ptr %5, align 4
  ret i32 %39
}