; Function Attrs: nounwind uwtable
define internal range(i32 0, 2) i32 @ts_resp_cb(i32 noundef %0, ptr noundef readonly captures(none) %1, ptr readnone captures(none) %2, ptr readnone captures(none) %3) #0 {
  %5 = load ptr, ptr %1, align 8, !tbaa !29
  switch i32 %0, label %ts_resp_set_tst_info.exit.thread [
    i32 1, label %6
    i32 3, label %8
    i32 5, label %11
  ]

6:                                                ; preds = %4
  %7 = getelementptr inbounds nuw i8, ptr %5, i64 16
  store ptr null, ptr %7, align 8, !tbaa !31
  br label %ts_resp_set_tst_info.exit.thread

8:                                                ; preds = %4
  %9 = getelementptr inbounds nuw i8, ptr %5, i64 16
  %10 = load ptr, ptr %9, align 8, !tbaa !31
  tail call void @ASN1_item_free(ptr noundef %10, ptr noundef nonnull @TS_TST_INFO_it.local_it) #4
  br label %ts_resp_set_tst_info.exit.thread

11:                                               ; preds = %4
  %12 = load ptr, ptr %5, align 8, !tbaa !35
  %13 = load ptr, ptr %12, align 8, !tbaa !36
  %14 = tail call i64 @ASN1_INTEGER_get(ptr noundef %13) #4
  %15 = getelementptr inbounds nuw i8, ptr %5, i64 8
  %16 = load ptr, ptr %15, align 8, !tbaa !39
  %.not.i = icmp eq ptr %16, null
  br i1 %.not.i, label %23, label %17

17:                                               ; preds = %11
  %or.cond.i = icmp ugt i64 %14, 1
  br i1 %or.cond.i, label %ts_resp_set_tst_info.exit, label %18

18:                                               ; preds = %17
  %19 = getelementptr inbounds nuw i8, ptr %5, i64 16
  %20 = load ptr, ptr %19, align 8, !tbaa !31
  tail call void @ASN1_item_free(ptr noundef %20, ptr noundef nonnull @TS_TST_INFO_it.local_it) #4
  %21 = load ptr, ptr %15, align 8, !tbaa !39
  %22 = tail call ptr @PKCS7_to_TS_TST_INFO(ptr noundef %21)
  store ptr %22, ptr %19, align 8, !tbaa !31
  %.not13.i = icmp eq ptr %22, null
  br i1 %.not13.i, label %ts_resp_set_tst_info.exit, label %ts_resp_set_tst_info.exit.thread

23:                                               ; preds = %11
  %or.cond3.i = icmp ult i64 %14, 2
  br i1 %or.cond3.i, label %ts_resp_set_tst_info.exit, label %ts_resp_set_tst_info.exit.thread

ts_resp_set_tst_info.exit:                        ; preds = %17, %18, %23
  %.sink14.i = phi i32 [ 141, %17 ], [ 147, %18 ], [ 151, %23 ]
  %.sink.i = phi i32 [ 131, %17 ], [ 129, %18 ], [ 130, %23 ]
  tail call void @ERR_new() #4
  tail call void @ERR_set_debug(ptr noundef nonnull @.str, i32 noundef %.sink14.i, ptr noundef nonnull @__func__.ts_resp_set_tst_info) #4
  tail call void (i32, i32, ptr, ...) @ERR_set_error(i32 noundef 47, i32 noundef %.sink.i, ptr noundef null) #4
  br label %ts_resp_set_tst_info.exit.thread

ts_resp_set_tst_info.exit.thread:                 ; preds = %18, %23, %6, %8, %4, %ts_resp_set_tst_info.exit
  %.0 = phi i32 [ 0, %ts_resp_set_tst_info.exit ], [ 1, %4 ], [ 1, %8 ], [ 1, %6 ], [ 1, %23 ], [ 1, %18 ]
  ret i32 %.0
}